
serial_interface.elf:     file format elf32-littlearm

Sections:
Idx Name          Size      VMA       LMA       File off  Algn
  0 .isr_vector   00000194  08000000  08000000  00001000  2**0
                  CONTENTS, ALLOC, LOAD, READONLY, DATA
  1 .text         000007a8  08000194  08000194  00001194  2**2
                  CONTENTS, ALLOC, LOAD, READONLY, CODE
  2 .rodata       00000000  0800093c  0800093c  00002090  2**0
                  CONTENTS, ALLOC, LOAD, DATA
  3 .ARM.extab    00000000  0800093c  0800093c  00002090  2**0
                  CONTENTS
  4 .ARM          00000000  0800093c  0800093c  00002090  2**0
                  CONTENTS
  5 .preinit_array 00000000  0800093c  0800093c  00002090  2**0
                  CONTENTS, ALLOC, LOAD, DATA
  6 .init_array   00000004  0800093c  0800093c  0000193c  2**2
                  CONTENTS, ALLOC, LOAD, READONLY, DATA
  7 .fini_array   00000004  08000940  08000940  00001940  2**2
                  CONTENTS, ALLOC, LOAD, READONLY, DATA
  8 .data         00000090  20000000  08000944  00002000  2**2
                  CONTENTS, ALLOC, LOAD, DATA
  9 .ccmram       00000000  10000000  10000000  00002090  2**0
                  CONTENTS
 10 .bss          00000170  20000090  20000090  00002090  2**2
                  ALLOC
 11 ._user_heap_stack 00000600  20000200  20000200  00002090  2**0
                  ALLOC
 12 .ARM.attributes 00000030  00000000  00000000  00002090  2**0
                  CONTENTS, READONLY
 13 .debug_info   00001767  00000000  00000000  000020c0  2**0
                  CONTENTS, READONLY, DEBUGGING, OCTETS
 14 .debug_abbrev 00000666  00000000  00000000  00003827  2**0
                  CONTENTS, READONLY, DEBUGGING, OCTETS
 15 .debug_aranges 00000108  00000000  00000000  00003e90  2**3
                  CONTENTS, READONLY, DEBUGGING, OCTETS
 16 .debug_rnglists 000000af  00000000  00000000  00003f98  2**0
                  CONTENTS, READONLY, DEBUGGING, OCTETS
 17 .debug_macro  000161f5  00000000  00000000  00004047  2**0
                  CONTENTS, READONLY, DEBUGGING, OCTETS
 18 .debug_line   00001c2b  00000000  00000000  0001a23c  2**0
                  CONTENTS, READONLY, DEBUGGING, OCTETS
 19 .debug_str    000768a2  00000000  00000000  0001be67  2**0
                  CONTENTS, READONLY, DEBUGGING, OCTETS
 20 .comment      00000043  00000000  00000000  00092709  2**0
                  CONTENTS, READONLY
 21 .debug_frame  000005e0  00000000  00000000  0009274c  2**2
                  CONTENTS, READONLY, DEBUGGING, OCTETS
 22 .debug_line_str 00000087  00000000  00000000  00092d2c  2**0
                  CONTENTS, READONLY, DEBUGGING, OCTETS

Disassembly of section .text:

08000194 <__do_global_dtors_aux>:
 8000194:	b510      	push	{r4, lr}
 8000196:	4c05      	ldr	r4, [pc, #20]	@ (80001ac <__do_global_dtors_aux+0x18>)
 8000198:	7823      	ldrb	r3, [r4, #0]
 800019a:	b933      	cbnz	r3, 80001aa <__do_global_dtors_aux+0x16>
 800019c:	4b04      	ldr	r3, [pc, #16]	@ (80001b0 <__do_global_dtors_aux+0x1c>)
 800019e:	b113      	cbz	r3, 80001a6 <__do_global_dtors_aux+0x12>
 80001a0:	4804      	ldr	r0, [pc, #16]	@ (80001b4 <__do_global_dtors_aux+0x20>)
 80001a2:	f3af 8000 	nop.w
 80001a6:	2301      	movs	r3, #1
 80001a8:	7023      	strb	r3, [r4, #0]
 80001aa:	bd10      	pop	{r4, pc}
 80001ac:	20000090 	.word	0x20000090
 80001b0:	00000000 	.word	0x00000000
 80001b4:	08000924 	.word	0x08000924

080001b8 <frame_dummy>:
 80001b8:	b508      	push	{r3, lr}
 80001ba:	4b03      	ldr	r3, [pc, #12]	@ (80001c8 <frame_dummy+0x10>)
 80001bc:	b11b      	cbz	r3, 80001c6 <frame_dummy+0xe>
 80001be:	4903      	ldr	r1, [pc, #12]	@ (80001cc <frame_dummy+0x14>)
 80001c0:	4803      	ldr	r0, [pc, #12]	@ (80001d0 <frame_dummy+0x18>)
 80001c2:	f3af 8000 	nop.w
 80001c6:	bd08      	pop	{r3, pc}
 80001c8:	00000000 	.word	0x00000000
 80001cc:	20000094 	.word	0x20000094
 80001d0:	08000924 	.word	0x08000924

080001d4 <__NVIC_EnableIRQ>:
  \details Enables a device specific interrupt in the NVIC interrupt controller.
  \param [in]      IRQn  Device specific interrupt number.
  \note    IRQn must not be negative.
 */
__STATIC_INLINE void __NVIC_EnableIRQ(IRQn_Type IRQn)
{
 80001d4:	b480      	push	{r7}
 80001d6:	b083      	sub	sp, #12
 80001d8:	af00      	add	r7, sp, #0
 80001da:	4603      	mov	r3, r0
 80001dc:	71fb      	strb	r3, [r7, #7]
  if ((int32_t)(IRQn) >= 0)
 80001de:	f997 3007 	ldrsb.w	r3, [r7, #7]
 80001e2:	2b00      	cmp	r3, #0
 80001e4:	db0b      	blt.n	80001fe <__NVIC_EnableIRQ+0x2a>
  {
    NVIC->ISER[(((uint32_t)IRQn) >> 5UL)] = (uint32_t)(1UL << (((uint32_t)IRQn) & 0x1FUL));
 80001e6:	79fb      	ldrb	r3, [r7, #7]
 80001e8:	f003 021f 	and.w	r2, r3, #31
 80001ec:	4907      	ldr	r1, [pc, #28]	@ (800020c <__NVIC_EnableIRQ+0x38>)
 80001ee:	f997 3007 	ldrsb.w	r3, [r7, #7]
 80001f2:	095b      	lsrs	r3, r3, #5
 80001f4:	2001      	movs	r0, #1
 80001f6:	fa00 f202 	lsl.w	r2, r0, r2
 80001fa:	f841 2023 	str.w	r2, [r1, r3, lsl #2]
  }
}
 80001fe:	bf00      	nop
 8000200:	370c      	adds	r7, #12
 8000202:	46bd      	mov	sp, r7
 8000204:	f85d 7b04 	ldr.w	r7, [sp], #4
 8000208:	4770      	bx	lr
 800020a:	bf00      	nop
 800020c:	e000e100 	.word	0xe000e100

08000210 <__NVIC_SetPriority>:
  \param [in]      IRQn  Interrupt number.
  \param [in]  priority  Priority to set.
  \note    The priority cannot be set for every processor exception.
 */
__STATIC_INLINE void __NVIC_SetPriority(IRQn_Type IRQn, uint32_t priority)
{
 8000210:	b480      	push	{r7}
 8000212:	b083      	sub	sp, #12
 8000214:	af00      	add	r7, sp, #0
 8000216:	4603      	mov	r3, r0
 8000218:	6039      	str	r1, [r7, #0]
 800021a:	71fb      	strb	r3, [r7, #7]
  if ((int32_t)(IRQn) >= 0)
 800021c:	f997 3007 	ldrsb.w	r3, [r7, #7]
 8000220:	2b00      	cmp	r3, #0
 8000222:	db0a      	blt.n	800023a <__NVIC_SetPriority+0x2a>
  {
    NVIC->IP[((uint32_t)IRQn)]               = (uint8_t)((priority << (8U - __NVIC_PRIO_BITS)) & (uint32_t)0xFFUL);
 8000224:	683b      	ldr	r3, [r7, #0]
 8000226:	b2da      	uxtb	r2, r3
 8000228:	490c      	ldr	r1, [pc, #48]	@ (800025c <__NVIC_SetPriority+0x4c>)
 800022a:	f997 3007 	ldrsb.w	r3, [r7, #7]
 800022e:	0112      	lsls	r2, r2, #4
 8000230:	b2d2      	uxtb	r2, r2
 8000232:	440b      	add	r3, r1
 8000234:	f883 2300 	strb.w	r2, [r3, #768]	@ 0x300
  }
  else
  {
    SCB->SHP[(((uint32_t)IRQn) & 0xFUL)-4UL] = (uint8_t)((priority << (8U - __NVIC_PRIO_BITS)) & (uint32_t)0xFFUL);
  }
}
 8000238:	e00a      	b.n	8000250 <__NVIC_SetPriority+0x40>
    SCB->SHP[(((uint32_t)IRQn) & 0xFUL)-4UL] = (uint8_t)((priority << (8U - __NVIC_PRIO_BITS)) & (uint32_t)0xFFUL);
 800023a:	683b      	ldr	r3, [r7, #0]
 800023c:	b2da      	uxtb	r2, r3
 800023e:	4908      	ldr	r1, [pc, #32]	@ (8000260 <__NVIC_SetPriority+0x50>)
 8000240:	79fb      	ldrb	r3, [r7, #7]
 8000242:	f003 030f 	and.w	r3, r3, #15
 8000246:	3b04      	subs	r3, #4
 8000248:	0112      	lsls	r2, r2, #4
 800024a:	b2d2      	uxtb	r2, r2
 800024c:	440b      	add	r3, r1
 800024e:	761a      	strb	r2, [r3, #24]
}
 8000250:	bf00      	nop
 8000252:	370c      	adds	r7, #12
 8000254:	46bd      	mov	sp, r7
 8000256:	f85d 7b04 	ldr.w	r7, [sp], #4
 800025a:	4770      	bx	lr
 800025c:	e000e100 	.word	0xe000e100
 8000260:	e000ed00 	.word	0xe000ed00

08000264 <USART1_EXTI25_IRQHandler>:
#include "interrupts.h"

#define TERMINATOR '\0'

void USART1_EXTI25_IRQHandler(void) {
 8000264:	b580      	push	{r7, lr}
 8000266:	af00      	add	r7, sp, #0

	// when interrupt is reached, call the rx_function
	rx_function(&USART1_PORT);
 8000268:	4806      	ldr	r0, [pc, #24]	@ (8000284 <USART1_EXTI25_IRQHandler+0x20>)
 800026a:	f000 f838 	bl	80002de <rx_function>

	// transmit if and only if the transmit interrupt TXEIE is triggered
	if ((USART1->CR1 & USART_CR1_TXEIE) == 1) {
 800026e:	4b06      	ldr	r3, [pc, #24]	@ (8000288 <USART1_EXTI25_IRQHandler+0x24>)
 8000270:	681b      	ldr	r3, [r3, #0]
 8000272:	f003 0380 	and.w	r3, r3, #128	@ 0x80
 8000276:	2b01      	cmp	r3, #1
 8000278:	d102      	bne.n	8000280 <USART1_EXTI25_IRQHandler+0x1c>
		tx_function(&USART1_PORT);
 800027a:	4802      	ldr	r0, [pc, #8]	@ (8000284 <USART1_EXTI25_IRQHandler+0x20>)
 800027c:	f000 f8bb 	bl	80003f6 <tx_function>
	}
}
 8000280:	bf00      	nop
 8000282:	bd80      	pop	{r7, pc}
 8000284:	20000000 	.word	0x20000000
 8000288:	40013800 	.word	0x40013800

0800028c <rx_enable>:

void rx_enable(SerialPort *serial_port) {
 800028c:	b580      	push	{r7, lr}
 800028e:	b082      	sub	sp, #8
 8000290:	af00      	add	r7, sp, #0
 8000292:	6078      	str	r0, [r7, #4]
  \details Disables IRQ interrupts by setting the I-bit in the CPSR.
           Can only be executed in Privileged modes.
 */
__STATIC_FORCEINLINE void __disable_irq(void)
{
  __ASM volatile ("cpsid i" : : : "memory");
 8000294:	b672      	cpsid	i
}
 8000296:	bf00      	nop

	__disable_irq(); // disable all interrupts while changing settings

	// enabling the interrupts
	serial_port->UART->CR1 |= USART_CR1_RXNEIE;		// enabling RXNE interrupts
 8000298:	687b      	ldr	r3, [r7, #4]
 800029a:	681b      	ldr	r3, [r3, #0]
 800029c:	681a      	ldr	r2, [r3, #0]
 800029e:	687b      	ldr	r3, [r7, #4]
 80002a0:	681b      	ldr	r3, [r3, #0]
 80002a2:	f042 0220 	orr.w	r2, r2, #32
 80002a6:	601a      	str	r2, [r3, #0]
	serial_port->UART->CR3 |= USART_CR3_EIE;		// enabling the error interrupts
 80002a8:	687b      	ldr	r3, [r7, #4]
 80002aa:	681b      	ldr	r3, [r3, #0]
 80002ac:	689a      	ldr	r2, [r3, #8]
 80002ae:	687b      	ldr	r3, [r7, #4]
 80002b0:	681b      	ldr	r3, [r3, #0]
 80002b2:	f042 0201 	orr.w	r2, r2, #1
 80002b6:	609a      	str	r2, [r3, #8]

	// activating interrupts and setting priority
	NVIC_SetPriority(serial_port->UART_IRQn, 5);
 80002b8:	687b      	ldr	r3, [r7, #4]
 80002ba:	6b9b      	ldr	r3, [r3, #56]	@ 0x38
 80002bc:	b25b      	sxtb	r3, r3
 80002be:	2105      	movs	r1, #5
 80002c0:	4618      	mov	r0, r3
 80002c2:	f7ff ffa5 	bl	8000210 <__NVIC_SetPriority>
	NVIC_EnableIRQ(serial_port->UART_IRQn);			//  enable UART interrupts
 80002c6:	687b      	ldr	r3, [r7, #4]
 80002c8:	6b9b      	ldr	r3, [r3, #56]	@ 0x38
 80002ca:	b25b      	sxtb	r3, r3
 80002cc:	4618      	mov	r0, r3
 80002ce:	f7ff ff81 	bl	80001d4 <__NVIC_EnableIRQ>
  __ASM volatile ("cpsie i" : : : "memory");
 80002d2:	b662      	cpsie	i
}
 80002d4:	bf00      	nop

	__enable_irq(); // re-enable all interrupts
}
 80002d6:	bf00      	nop
 80002d8:	3708      	adds	r7, #8
 80002da:	46bd      	mov	sp, r7
 80002dc:	bd80      	pop	{r7, pc}

080002de <rx_function>:

void rx_function(SerialPort *serial_port) {
 80002de:	b580      	push	{r7, lr}
 80002e0:	b084      	sub	sp, #16
 80002e2:	af00      	add	r7, sp, #0
 80002e4:	6078      	str	r0, [r7, #4]

	// checking if receiving is working properly
	if (!((serial_port->UART->ISR & USART_ISR_RXNE) == 0) &&
 80002e6:	687b      	ldr	r3, [r7, #4]
 80002e8:	681b      	ldr	r3, [r3, #0]
 80002ea:	69db      	ldr	r3, [r3, #28]
 80002ec:	f003 0320 	and.w	r3, r3, #32
 80002f0:	2b00      	cmp	r3, #0
 80002f2:	d04f      	beq.n	8000394 <rx_function+0xb6>
		(serial_port->UART->ISR & USART_ISR_ORE) == 0 &&
 80002f4:	687b      	ldr	r3, [r7, #4]
 80002f6:	681b      	ldr	r3, [r3, #0]
 80002f8:	69db      	ldr	r3, [r3, #28]
 80002fa:	f003 0308 	and.w	r3, r3, #8
	if (!((serial_port->UART->ISR & USART_ISR_RXNE) == 0) &&
 80002fe:	2b00      	cmp	r3, #0
 8000300:	d148      	bne.n	8000394 <rx_function+0xb6>
		(serial_port->UART->ISR & USART_ISR_FE) == 0)  {
 8000302:	687b      	ldr	r3, [r7, #4]
 8000304:	681b      	ldr	r3, [r3, #0]
 8000306:	69db      	ldr	r3, [r3, #28]
 8000308:	f003 0302 	and.w	r3, r3, #2
		(serial_port->UART->ISR & USART_ISR_ORE) == 0 &&
 800030c:	2b00      	cmp	r3, #0
 800030e:	d141      	bne.n	8000394 <rx_function+0xb6>

		// reading the character into the buffer
		serial_port->Buffer[serial_port->Count] = (uint8_t)(serial_port->UART->RDR);
 8000310:	687b      	ldr	r3, [r7, #4]
 8000312:	681b      	ldr	r3, [r3, #0]
 8000314:	8c9b      	ldrh	r3, [r3, #36]	@ 0x24
 8000316:	b299      	uxth	r1, r3
 8000318:	687b      	ldr	r3, [r7, #4]
 800031a:	6a5a      	ldr	r2, [r3, #36]	@ 0x24
 800031c:	687b      	ldr	r3, [r7, #4]
 800031e:	6adb      	ldr	r3, [r3, #44]	@ 0x2c
 8000320:	4413      	add	r3, r2
 8000322:	b2ca      	uxtb	r2, r1
 8000324:	701a      	strb	r2, [r3, #0]
		serial_port->Count++;
 8000326:	687b      	ldr	r3, [r7, #4]
 8000328:	6adb      	ldr	r3, [r3, #44]	@ 0x2c
 800032a:	1c5a      	adds	r2, r3, #1
 800032c:	687b      	ldr	r3, [r7, #4]
 800032e:	62da      	str	r2, [r3, #44]	@ 0x2c

		// if the buffer has been filled, append the terminating character
		if (serial_port->Count + 1 == serial_port->BufferSize) {
 8000330:	687b      	ldr	r3, [r7, #4]
 8000332:	6adb      	ldr	r3, [r3, #44]	@ 0x2c
 8000334:	1c5a      	adds	r2, r3, #1
 8000336:	687b      	ldr	r3, [r7, #4]
 8000338:	6b1b      	ldr	r3, [r3, #48]	@ 0x30
 800033a:	429a      	cmp	r2, r3
 800033c:	d10b      	bne.n	8000356 <rx_function+0x78>

			serial_port->Buffer[serial_port->Count] = TERMINATOR;
 800033e:	687b      	ldr	r3, [r7, #4]
 8000340:	6a5a      	ldr	r2, [r3, #36]	@ 0x24
 8000342:	687b      	ldr	r3, [r7, #4]
 8000344:	6adb      	ldr	r3, [r3, #44]	@ 0x2c
 8000346:	4413      	add	r3, r2
 8000348:	2200      	movs	r2, #0
 800034a:	701a      	strb	r2, [r3, #0]
			serial_port->Count++;
 800034c:	687b      	ldr	r3, [r7, #4]
 800034e:	6adb      	ldr	r3, [r3, #44]	@ 0x2c
 8000350:	1c5a      	adds	r2, r3, #1
 8000352:	687b      	ldr	r3, [r7, #4]
 8000354:	62da      	str	r2, [r3, #44]	@ 0x2c
		}

		// if the terminating character has been read, reading is complete and callback occurs
		// (extension) swap the buffers
		if (serial_port->Buffer[serial_port->Count - 1 ] == TERMINATOR) {
 8000356:	687b      	ldr	r3, [r7, #4]
 8000358:	6a5a      	ldr	r2, [r3, #36]	@ 0x24
 800035a:	687b      	ldr	r3, [r7, #4]
 800035c:	6adb      	ldr	r3, [r3, #44]	@ 0x2c
 800035e:	3b01      	subs	r3, #1
 8000360:	4413      	add	r3, r2
 8000362:	781b      	ldrb	r3, [r3, #0]
 8000364:	b2db      	uxtb	r3, r3
 8000366:	2b00      	cmp	r3, #0
 8000368:	d11d      	bne.n	80003a6 <rx_function+0xc8>

			volatile uint8_t* temp_pt = serial_port->Buffer;
 800036a:	687b      	ldr	r3, [r7, #4]
 800036c:	6a5b      	ldr	r3, [r3, #36]	@ 0x24
 800036e:	60fb      	str	r3, [r7, #12]
			serial_port->Buffer = serial_port->SecondBuffer;
 8000370:	687b      	ldr	r3, [r7, #4]
 8000372:	6a9a      	ldr	r2, [r3, #40]	@ 0x28
 8000374:	687b      	ldr	r3, [r7, #4]
 8000376:	625a      	str	r2, [r3, #36]	@ 0x24
			serial_port->SecondBuffer = temp_pt;
 8000378:	687b      	ldr	r3, [r7, #4]
 800037a:	68fa      	ldr	r2, [r7, #12]
 800037c:	629a      	str	r2, [r3, #40]	@ 0x28

			// callback with the first buffer since the first buffer is finished reading
			serial_port->callback(temp_pt, serial_port->Count);
 800037e:	687b      	ldr	r3, [r7, #4]
 8000380:	6bdb      	ldr	r3, [r3, #60]	@ 0x3c
 8000382:	687a      	ldr	r2, [r7, #4]
 8000384:	6ad2      	ldr	r2, [r2, #44]	@ 0x2c
 8000386:	4611      	mov	r1, r2
 8000388:	68f8      	ldr	r0, [r7, #12]
 800038a:	4798      	blx	r3
			serial_port->Count = 0;
 800038c:	687b      	ldr	r3, [r7, #4]
 800038e:	2200      	movs	r2, #0
 8000390:	62da      	str	r2, [r3, #44]	@ 0x2c
		if (serial_port->Buffer[serial_port->Count - 1 ] == TERMINATOR) {
 8000392:	e008      	b.n	80003a6 <rx_function+0xc8>
		}

	}	else {
		// clear error flags
			serial_port->UART->ICR |= USART_ICR_ORECF | USART_ICR_FECF;
 8000394:	687b      	ldr	r3, [r7, #4]
 8000396:	681b      	ldr	r3, [r3, #0]
 8000398:	6a1a      	ldr	r2, [r3, #32]
 800039a:	687b      	ldr	r3, [r7, #4]
 800039c:	681b      	ldr	r3, [r3, #0]
 800039e:	f042 020a 	orr.w	r2, r2, #10
 80003a2:	621a      	str	r2, [r3, #32]

	}

}
 80003a4:	bf00      	nop
 80003a6:	bf00      	nop
 80003a8:	3710      	adds	r7, #16
 80003aa:	46bd      	mov	sp, r7
 80003ac:	bd80      	pop	{r7, pc}

080003ae <tx_enable>:

void tx_enable(bool flag, SerialPort *serial_port) {
 80003ae:	b480      	push	{r7}
 80003b0:	b083      	sub	sp, #12
 80003b2:	af00      	add	r7, sp, #0
 80003b4:	4603      	mov	r3, r0
 80003b6:	6039      	str	r1, [r7, #0]
 80003b8:	71fb      	strb	r3, [r7, #7]
  __ASM volatile ("cpsid i" : : : "memory");
 80003ba:	b672      	cpsid	i
}
 80003bc:	bf00      	nop

	__disable_irq();

	if (flag == true) {
 80003be:	79fb      	ldrb	r3, [r7, #7]
 80003c0:	2b00      	cmp	r3, #0
 80003c2:	d008      	beq.n	80003d6 <tx_enable+0x28>
		serial_port->UART->CR1 |= USART_CR1_TXEIE;
 80003c4:	683b      	ldr	r3, [r7, #0]
 80003c6:	681b      	ldr	r3, [r3, #0]
 80003c8:	681a      	ldr	r2, [r3, #0]
 80003ca:	683b      	ldr	r3, [r7, #0]
 80003cc:	681b      	ldr	r3, [r3, #0]
 80003ce:	f042 0280 	orr.w	r2, r2, #128	@ 0x80
 80003d2:	601a      	str	r2, [r3, #0]
 80003d4:	e007      	b.n	80003e6 <tx_enable+0x38>
	} else {
		serial_port->UART->CR1 |= ~USART_CR1_TXEIE;
 80003d6:	683b      	ldr	r3, [r7, #0]
 80003d8:	681b      	ldr	r3, [r3, #0]
 80003da:	681a      	ldr	r2, [r3, #0]
 80003dc:	683b      	ldr	r3, [r7, #0]
 80003de:	681b      	ldr	r3, [r3, #0]
 80003e0:	f062 0280 	orn	r2, r2, #128	@ 0x80
 80003e4:	601a      	str	r2, [r3, #0]
  __ASM volatile ("cpsie i" : : : "memory");
 80003e6:	b662      	cpsie	i
}
 80003e8:	bf00      	nop
	}

	__enable_irq();
}
 80003ea:	bf00      	nop
 80003ec:	370c      	adds	r7, #12
 80003ee:	46bd      	mov	sp, r7
 80003f0:	f85d 7b04 	ldr.w	r7, [sp], #4
 80003f4:	4770      	bx	lr

080003f6 <tx_function>:
	// enable the transmittion interrupts if there is a string to transmit.
	tx_enable(true, serial_port);

}

void tx_function(SerialPort *serial_port) {
 80003f6:	b580      	push	{r7, lr}
 80003f8:	b082      	sub	sp, #8
 80003fa:	af00      	add	r7, sp, #0
 80003fc:	6078      	str	r0, [r7, #4]

	// checking for terminating character
	if (serial_port->TxPointer == TERMINATOR) {
 80003fe:	687b      	ldr	r3, [r7, #4]
 8000400:	6b5b      	ldr	r3, [r3, #52]	@ 0x34
 8000402:	2b00      	cmp	r3, #0
 8000404:	d107      	bne.n	8000416 <tx_function+0x20>

		serial_port->UART->TDR = TERMINATOR;
 8000406:	687b      	ldr	r3, [r7, #4]
 8000408:	681b      	ldr	r3, [r3, #0]
 800040a:	2200      	movs	r2, #0
 800040c:	851a      	strh	r2, [r3, #40]	@ 0x28
		tx_enable(false, serial_port);
 800040e:	6879      	ldr	r1, [r7, #4]
 8000410:	2000      	movs	r0, #0
 8000412:	f7ff ffcc 	bl	80003ae <tx_enable>
	}

	// transmit character
	serial_port->UART->TDR = *serial_port->TxPointer;
 8000416:	687b      	ldr	r3, [r7, #4]
 8000418:	6b5b      	ldr	r3, [r3, #52]	@ 0x34
 800041a:	781b      	ldrb	r3, [r3, #0]
 800041c:	b2da      	uxtb	r2, r3
 800041e:	687b      	ldr	r3, [r7, #4]
 8000420:	681b      	ldr	r3, [r3, #0]
 8000422:	851a      	strh	r2, [r3, #40]	@ 0x28
	serial_port->TxPointer++;
 8000424:	687b      	ldr	r3, [r7, #4]
 8000426:	6b5b      	ldr	r3, [r3, #52]	@ 0x34
 8000428:	1c5a      	adds	r2, r3, #1
 800042a:	687b      	ldr	r3, [r7, #4]
 800042c:	635a      	str	r2, [r3, #52]	@ 0x34
}
 800042e:	bf00      	nop
 8000430:	3708      	adds	r7, #8
 8000432:	46bd      	mov	sp, r7
 8000434:	bd80      	pop	{r7, pc}
	...

08000438 <rx_complete>:
#define TERMINATOR '\0'
#define BUFFER_SIZE 8

volatile uint8_t rx_buffer[BUFFER_SIZE];

void rx_complete(uint8_t *pt, uint32_t counter) {
 8000438:	b480      	push	{r7}
 800043a:	b085      	sub	sp, #20
 800043c:	af00      	add	r7, sp, #0
 800043e:	6078      	str	r0, [r7, #4]
 8000440:	6039      	str	r1, [r7, #0]
	// This function will be called after a transmission is complete

	volatile uint32_t test = 0;
 8000442:	2300      	movs	r3, #0
 8000444:	60fb      	str	r3, [r7, #12]
	// make a very simple delay
	for (volatile uint32_t i = 0; i < 0x8ffff; i++) {
 8000446:	2300      	movs	r3, #0
 8000448:	60bb      	str	r3, [r7, #8]
 800044a:	e002      	b.n	8000452 <rx_complete+0x1a>
 800044c:	68bb      	ldr	r3, [r7, #8]
 800044e:	3301      	adds	r3, #1
 8000450:	60bb      	str	r3, [r7, #8]
 8000452:	68bb      	ldr	r3, [r7, #8]
 8000454:	4a04      	ldr	r2, [pc, #16]	@ (8000468 <rx_complete+0x30>)
 8000456:	4293      	cmp	r3, r2
 8000458:	d9f8      	bls.n	800044c <rx_complete+0x14>
		// waste time !
	}
}
 800045a:	bf00      	nop
 800045c:	bf00      	nop
 800045e:	3714      	adds	r7, #20
 8000460:	46bd      	mov	sp, r7
 8000462:	f85d 7b04 	ldr.w	r7, [sp], #4
 8000466:	4770      	bx	lr
 8000468:	0008fffe 	.word	0x0008fffe

0800046c <main>:

int main(void)
{
 800046c:	b580      	push	{r7, lr}
 800046e:	b082      	sub	sp, #8
 8000470:	af00      	add	r7, sp, #0

	bool polling_flag = false;
 8000472:	2300      	movs	r3, #0
 8000474:	71fb      	strb	r3, [r7, #7]

 	SerialInitialise(BUFFER_SIZE, BAUD_115200, &USART1_PORT, &rx_complete);
 8000476:	4b0c      	ldr	r3, [pc, #48]	@ (80004a8 <main+0x3c>)
 8000478:	4a0c      	ldr	r2, [pc, #48]	@ (80004ac <main+0x40>)
 800047a:	2104      	movs	r1, #4
 800047c:	2008      	movs	r0, #8
 800047e:	f000 f819 	bl	80004b4 <SerialInitialise>

 	if (polling_flag == false) {
 8000482:	79fb      	ldrb	r3, [r7, #7]
 8000484:	f083 0301 	eor.w	r3, r3, #1
 8000488:	b2db      	uxtb	r3, r3
 800048a:	2b00      	cmp	r3, #0
 800048c:	d002      	beq.n	8000494 <main+0x28>
 		rx_enable(&USART1_PORT);
 800048e:	4807      	ldr	r0, [pc, #28]	@ (80004ac <main+0x40>)
 8000490:	f7ff fefc 	bl	800028c <rx_enable>
 	}

    /* Loop forever */
	for(;;) {
		if (polling_flag == true) {
 8000494:	79fb      	ldrb	r3, [r7, #7]
 8000496:	2b00      	cmp	r3, #0
 8000498:	d0fc      	beq.n	8000494 <main+0x28>
			SerialReceiveString(rx_buffer, &USART1_PORT, BUFFER_SIZE, TERMINATOR);
 800049a:	2300      	movs	r3, #0
 800049c:	2208      	movs	r2, #8
 800049e:	4903      	ldr	r1, [pc, #12]	@ (80004ac <main+0x40>)
 80004a0:	4803      	ldr	r0, [pc, #12]	@ (80004b0 <main+0x44>)
 80004a2:	f000 f8b7 	bl	8000614 <SerialReceiveString>
		if (polling_flag == true) {
 80004a6:	e7f5      	b.n	8000494 <main+0x28>
 80004a8:	08000439 	.word	0x08000439
 80004ac:	20000000 	.word	0x20000000
 80004b0:	200000ac 	.word	0x200000ac

080004b4 <SerialInitialise>:
// InitialiseSerial - Initialise the serial port
// Input: baudRate is from an enumerated set
void SerialInitialise(uint32_t buffer_size,
					  uint32_t baudRate,
					  SerialPort *serial_port,
					  void (*rx_complete)(volatile uint8_t*, uint32_t)) {
 80004b4:	b580      	push	{r7, lr}
 80004b6:	b086      	sub	sp, #24
 80004b8:	af00      	add	r7, sp, #0
 80004ba:	60f8      	str	r0, [r7, #12]
 80004bc:	60b9      	str	r1, [r7, #8]
 80004be:	607a      	str	r2, [r7, #4]
 80004c0:	603b      	str	r3, [r7, #0]
	// baudRate: the serial baud rate
	// serial_port: address of the serial port to initialise
	// rx_complete_function: pointer to callback function; inputs are pointer to string buffer
	//						 and length of the stored string respectively

	serial_port->callback = rx_complete;
 80004c2:	687b      	ldr	r3, [r7, #4]
 80004c4:	683a      	ldr	r2, [r7, #0]
 80004c6:	63da      	str	r2, [r3, #60]	@ 0x3c


	// enable clock power, system configuration clock and GPIOC
	// common to all UARTs
	RCC->APB1ENR |= RCC_APB1ENR_PWREN;
 80004c8:	4b44      	ldr	r3, [pc, #272]	@ (80005dc <SerialInitialise+0x128>)
 80004ca:	69db      	ldr	r3, [r3, #28]
 80004cc:	4a43      	ldr	r2, [pc, #268]	@ (80005dc <SerialInitialise+0x128>)
 80004ce:	f043 5380 	orr.w	r3, r3, #268435456	@ 0x10000000
 80004d2:	61d3      	str	r3, [r2, #28]
	RCC->APB2ENR |= RCC_APB2ENR_SYSCFGEN;
 80004d4:	4b41      	ldr	r3, [pc, #260]	@ (80005dc <SerialInitialise+0x128>)
 80004d6:	699b      	ldr	r3, [r3, #24]
 80004d8:	4a40      	ldr	r2, [pc, #256]	@ (80005dc <SerialInitialise+0x128>)
 80004da:	f043 0301 	orr.w	r3, r3, #1
 80004de:	6193      	str	r3, [r2, #24]

	// enable the GPIO which is on the AHB bus
	RCC->AHBENR |= serial_port->MaskAHBENR;
 80004e0:	687b      	ldr	r3, [r7, #4]
 80004e2:	691a      	ldr	r2, [r3, #16]
 80004e4:	4b3d      	ldr	r3, [pc, #244]	@ (80005dc <SerialInitialise+0x128>)
 80004e6:	695b      	ldr	r3, [r3, #20]
 80004e8:	493c      	ldr	r1, [pc, #240]	@ (80005dc <SerialInitialise+0x128>)
 80004ea:	4313      	orrs	r3, r2
 80004ec:	614b      	str	r3, [r1, #20]

	// set pin mode to alternate function for the specific GPIO pins
	serial_port->GPIO->MODER = serial_port->SerialPinModeValue;
 80004ee:	687b      	ldr	r3, [r7, #4]
 80004f0:	685b      	ldr	r3, [r3, #4]
 80004f2:	687a      	ldr	r2, [r7, #4]
 80004f4:	6952      	ldr	r2, [r2, #20]
 80004f6:	601a      	str	r2, [r3, #0]

	// enable high speed clock for specific GPIO pins
	serial_port->GPIO->OSPEEDR = serial_port->SerialPinSpeedValue;
 80004f8:	687b      	ldr	r3, [r7, #4]
 80004fa:	685b      	ldr	r3, [r3, #4]
 80004fc:	687a      	ldr	r2, [r7, #4]
 80004fe:	6992      	ldr	r2, [r2, #24]
 8000500:	609a      	str	r2, [r3, #8]

	// set alternate function to enable USART to external pins
	serial_port->GPIO->AFR[0] |= serial_port->SerialPinAlternatePinValueLow;
 8000502:	687b      	ldr	r3, [r7, #4]
 8000504:	69d9      	ldr	r1, [r3, #28]
 8000506:	687b      	ldr	r3, [r7, #4]
 8000508:	685b      	ldr	r3, [r3, #4]
 800050a:	6a1a      	ldr	r2, [r3, #32]
 800050c:	687b      	ldr	r3, [r7, #4]
 800050e:	685b      	ldr	r3, [r3, #4]
 8000510:	430a      	orrs	r2, r1
 8000512:	621a      	str	r2, [r3, #32]
	serial_port->GPIO->AFR[1] |= serial_port->SerialPinAlternatePinValueHigh;
 8000514:	687b      	ldr	r3, [r7, #4]
 8000516:	6a19      	ldr	r1, [r3, #32]
 8000518:	687b      	ldr	r3, [r7, #4]
 800051a:	685b      	ldr	r3, [r3, #4]
 800051c:	6a5a      	ldr	r2, [r3, #36]	@ 0x24
 800051e:	687b      	ldr	r3, [r7, #4]
 8000520:	685b      	ldr	r3, [r3, #4]
 8000522:	430a      	orrs	r2, r1
 8000524:	625a      	str	r2, [r3, #36]	@ 0x24

	// enable the device based on the bits defined in the serial port definition
	RCC->APB1ENR |= serial_port->MaskAPB1ENR;
 8000526:	687b      	ldr	r3, [r7, #4]
 8000528:	68da      	ldr	r2, [r3, #12]
 800052a:	4b2c      	ldr	r3, [pc, #176]	@ (80005dc <SerialInitialise+0x128>)
 800052c:	69db      	ldr	r3, [r3, #28]
 800052e:	492b      	ldr	r1, [pc, #172]	@ (80005dc <SerialInitialise+0x128>)
 8000530:	4313      	orrs	r3, r2
 8000532:	61cb      	str	r3, [r1, #28]
	RCC->APB2ENR |= serial_port->MaskAPB2ENR;
 8000534:	687b      	ldr	r3, [r7, #4]
 8000536:	689a      	ldr	r2, [r3, #8]
 8000538:	4b28      	ldr	r3, [pc, #160]	@ (80005dc <SerialInitialise+0x128>)
 800053a:	699b      	ldr	r3, [r3, #24]
 800053c:	4927      	ldr	r1, [pc, #156]	@ (80005dc <SerialInitialise+0x128>)
 800053e:	4313      	orrs	r3, r2
 8000540:	618b      	str	r3, [r1, #24]

	// Get a pointer to the 16 bits of the BRR register that we want to change
	uint16_t *baud_rate_config = (uint16_t*)&serial_port->UART->BRR; // only 16 bits used!
 8000542:	687b      	ldr	r3, [r7, #4]
 8000544:	681b      	ldr	r3, [r3, #0]
 8000546:	330c      	adds	r3, #12
 8000548:	617b      	str	r3, [r7, #20]

	// Baud rate calculation from datasheet
	switch(baudRate){
 800054a:	68bb      	ldr	r3, [r7, #8]
 800054c:	2b04      	cmp	r3, #4
 800054e:	d823      	bhi.n	8000598 <SerialInitialise+0xe4>
 8000550:	a201      	add	r2, pc, #4	@ (adr r2, 8000558 <SerialInitialise+0xa4>)
 8000552:	f852 f023 	ldr.w	pc, [r2, r3, lsl #2]
 8000556:	bf00      	nop
 8000558:	0800056d 	.word	0x0800056d
 800055c:	08000577 	.word	0x08000577
 8000560:	08000581 	.word	0x08000581
 8000564:	08000589 	.word	0x08000589
 8000568:	08000591 	.word	0x08000591
	case BAUD_9600:
		*baud_rate_config = 0x342;  // 9600 at 8MHz
 800056c:	697b      	ldr	r3, [r7, #20]
 800056e:	f240 3242 	movw	r2, #834	@ 0x342
 8000572:	801a      	strh	r2, [r3, #0]
		break;
 8000574:	e010      	b.n	8000598 <SerialInitialise+0xe4>
	case BAUD_19200:
		*baud_rate_config = 0x19C;  // 19200 at 8MHz
 8000576:	697b      	ldr	r3, [r7, #20]
 8000578:	f44f 72ce 	mov.w	r2, #412	@ 0x19c
 800057c:	801a      	strh	r2, [r3, #0]
		break;
 800057e:	e00b      	b.n	8000598 <SerialInitialise+0xe4>
	case BAUD_38400:
		*baud_rate_config = 0xD0;  // 38400 at 8MHz
 8000580:	697b      	ldr	r3, [r7, #20]
 8000582:	22d0      	movs	r2, #208	@ 0xd0
 8000584:	801a      	strh	r2, [r3, #0]
		break;
 8000586:	e007      	b.n	8000598 <SerialInitialise+0xe4>
	case BAUD_57600:
		*baud_rate_config = 0x8B;  // 57600 at 8MHz
 8000588:	697b      	ldr	r3, [r7, #20]
 800058a:	228b      	movs	r2, #139	@ 0x8b
 800058c:	801a      	strh	r2, [r3, #0]
		break;
 800058e:	e003      	b.n	8000598 <SerialInitialise+0xe4>
	case BAUD_115200:
		*baud_rate_config = 0x46;  // 115200 at 8MHz
 8000590:	697b      	ldr	r3, [r7, #20]
 8000592:	2246      	movs	r2, #70	@ 0x46
 8000594:	801a      	strh	r2, [r3, #0]
		break;
 8000596:	bf00      	nop
	}


	// enable serial port for tx and rx
	serial_port->UART->CR1 |= USART_CR1_TE | USART_CR1_RE | USART_CR1_UE;
 8000598:	687b      	ldr	r3, [r7, #4]
 800059a:	681b      	ldr	r3, [r3, #0]
 800059c:	681a      	ldr	r2, [r3, #0]
 800059e:	687b      	ldr	r3, [r7, #4]
 80005a0:	681b      	ldr	r3, [r3, #0]
 80005a2:	f042 020d 	orr.w	r2, r2, #13
 80005a6:	601a      	str	r2, [r3, #0]

	// configuring buffers
	serial_port->BufferSize = buffer_size;
 80005a8:	687b      	ldr	r3, [r7, #4]
 80005aa:	68fa      	ldr	r2, [r7, #12]
 80005ac:	631a      	str	r2, [r3, #48]	@ 0x30
	serial_port->Buffer = (volatile uint8_t*)malloc(serial_port->BufferSize * sizeof(uint8_t));
 80005ae:	687b      	ldr	r3, [r7, #4]
 80005b0:	6b1b      	ldr	r3, [r3, #48]	@ 0x30
 80005b2:	4618      	mov	r0, r3
 80005b4:	f000 f8c4 	bl	8000740 <malloc>
 80005b8:	4603      	mov	r3, r0
 80005ba:	461a      	mov	r2, r3
 80005bc:	687b      	ldr	r3, [r7, #4]
 80005be:	625a      	str	r2, [r3, #36]	@ 0x24
	serial_port->SecondBuffer = (volatile uint8_t*)malloc(serial_port->BufferSize * sizeof(uint8_t));
 80005c0:	687b      	ldr	r3, [r7, #4]
 80005c2:	6b1b      	ldr	r3, [r3, #48]	@ 0x30
 80005c4:	4618      	mov	r0, r3
 80005c6:	f000 f8bb 	bl	8000740 <malloc>
 80005ca:	4603      	mov	r3, r0
 80005cc:	461a      	mov	r2, r3
 80005ce:	687b      	ldr	r3, [r7, #4]
 80005d0:	629a      	str	r2, [r3, #40]	@ 0x28

}
 80005d2:	bf00      	nop
 80005d4:	3718      	adds	r7, #24
 80005d6:	46bd      	mov	sp, r7
 80005d8:	bd80      	pop	{r7, pc}
 80005da:	bf00      	nop
 80005dc:	40021000 	.word	0x40021000

080005e0 <SerialReceiveChar>:
		pt++;
	}
}

// Function to receive a character
void SerialReceiveChar(uint8_t *pt, SerialPort *serial_port) {
 80005e0:	b480      	push	{r7}
 80005e2:	b083      	sub	sp, #12
 80005e4:	af00      	add	r7, sp, #0
 80005e6:	6078      	str	r0, [r7, #4]
 80005e8:	6039      	str	r1, [r7, #0]

	while((serial_port->UART->ISR & USART_ISR_RXNE) == 0){
 80005ea:	bf00      	nop
 80005ec:	683b      	ldr	r3, [r7, #0]
 80005ee:	681b      	ldr	r3, [r3, #0]
 80005f0:	69db      	ldr	r3, [r3, #28]
 80005f2:	f003 0320 	and.w	r3, r3, #32
 80005f6:	2b00      	cmp	r3, #0
 80005f8:	d0f8      	beq.n	80005ec <SerialReceiveChar+0xc>
	}

	// receiving a character into the buffer
	*pt = (uint8_t)(serial_port->UART->RDR);
 80005fa:	683b      	ldr	r3, [r7, #0]
 80005fc:	681b      	ldr	r3, [r3, #0]
 80005fe:	8c9b      	ldrh	r3, [r3, #36]	@ 0x24
 8000600:	b29b      	uxth	r3, r3
 8000602:	b2da      	uxtb	r2, r3
 8000604:	687b      	ldr	r3, [r7, #4]
 8000606:	701a      	strb	r2, [r3, #0]

}
 8000608:	bf00      	nop
 800060a:	370c      	adds	r7, #12
 800060c:	46bd      	mov	sp, r7
 800060e:	f85d 7b04 	ldr.w	r7, [sp], #4
 8000612:	4770      	bx	lr

08000614 <SerialReceiveString>:

void SerialReceiveString(uint8_t *buffer,
						 SerialPort *serial_port,
						 uint8_t buffer_size,
						 uint8_t terminator) {
 8000614:	b580      	push	{r7, lr}
 8000616:	b088      	sub	sp, #32
 8000618:	af00      	add	r7, sp, #0
 800061a:	60f8      	str	r0, [r7, #12]
 800061c:	60b9      	str	r1, [r7, #8]
 800061e:	4611      	mov	r1, r2
 8000620:	461a      	mov	r2, r3
 8000622:	460b      	mov	r3, r1
 8000624:	71fb      	strb	r3, [r7, #7]
 8000626:	4613      	mov	r3, r2
 8000628:	71bb      	strb	r3, [r7, #6]

	// Initialising variables for receiving
    uint8_t *buffer_base = buffer;		// to return to the beginning of the pointer 
 800062a:	68fb      	ldr	r3, [r7, #12]
 800062c:	61bb      	str	r3, [r7, #24]
    uint32_t counter = 0;					
 800062e:	2300      	movs	r3, #0
 8000630:	61fb      	str	r3, [r7, #28]
    uint8_t received_char;

	// receive while there is no terminating character
    do {
        SerialReceiveChar(&received_char, serial_port);
 8000632:	f107 0317 	add.w	r3, r7, #23
 8000636:	68b9      	ldr	r1, [r7, #8]
 8000638:	4618      	mov	r0, r3
 800063a:	f7ff ffd1 	bl	80005e0 <SerialReceiveChar>
        *buffer = received_char;
 800063e:	7dfa      	ldrb	r2, [r7, #23]
 8000640:	68fb      	ldr	r3, [r7, #12]
 8000642:	701a      	strb	r2, [r3, #0]

        counter++;
 8000644:	69fb      	ldr	r3, [r7, #28]
 8000646:	3301      	adds	r3, #1
 8000648:	61fb      	str	r3, [r7, #28]
        buffer++;
 800064a:	68fb      	ldr	r3, [r7, #12]
 800064c:	3301      	adds	r3, #1
 800064e:	60fb      	str	r3, [r7, #12]

		// overwrite when buffer is filled
        if (counter == buffer_size) {
 8000650:	79fb      	ldrb	r3, [r7, #7]
 8000652:	69fa      	ldr	r2, [r7, #28]
 8000654:	429a      	cmp	r2, r3
 8000656:	d103      	bne.n	8000660 <SerialReceiveString+0x4c>
            buffer = buffer_base;
 8000658:	69bb      	ldr	r3, [r7, #24]
 800065a:	60fb      	str	r3, [r7, #12]
            counter = 0;
 800065c:	2300      	movs	r3, #0
 800065e:	61fb      	str	r3, [r7, #28]
        }

    } while (received_char != terminator);
 8000660:	7dfb      	ldrb	r3, [r7, #23]
 8000662:	79ba      	ldrb	r2, [r7, #6]
 8000664:	429a      	cmp	r2, r3
 8000666:	d1e4      	bne.n	8000632 <SerialReceiveString+0x1e>

	// reset the buffer
    buffer = buffer_base;
 8000668:	69bb      	ldr	r3, [r7, #24]
 800066a:	60fb      	str	r3, [r7, #12]

	// return to callback function
    serial_port->callback(buffer, counter);
 800066c:	68bb      	ldr	r3, [r7, #8]
 800066e:	6bdb      	ldr	r3, [r3, #60]	@ 0x3c
 8000670:	69f9      	ldr	r1, [r7, #28]
 8000672:	68f8      	ldr	r0, [r7, #12]
 8000674:	4798      	blx	r3
}
 8000676:	bf00      	nop
 8000678:	3720      	adds	r7, #32
 800067a:	46bd      	mov	sp, r7
 800067c:	bd80      	pop	{r7, pc}
	...

08000680 <_sbrk>:
 *
 * @param incr Memory size
 * @return Pointer to allocated memory
 */
void *_sbrk(ptrdiff_t incr)
{
 8000680:	b580      	push	{r7, lr}
 8000682:	b086      	sub	sp, #24
 8000684:	af00      	add	r7, sp, #0
 8000686:	6078      	str	r0, [r7, #4]
  extern uint8_t _end; /* Symbol defined in the linker script */
  extern uint8_t _estack; /* Symbol defined in the linker script */
  extern uint32_t _Min_Stack_Size; /* Symbol defined in the linker script */
  const uint32_t stack_limit = (uint32_t)&_estack - (uint32_t)&_Min_Stack_Size;
 8000688:	4a14      	ldr	r2, [pc, #80]	@ (80006dc <_sbrk+0x5c>)
 800068a:	4b15      	ldr	r3, [pc, #84]	@ (80006e0 <_sbrk+0x60>)
 800068c:	1ad3      	subs	r3, r2, r3
 800068e:	617b      	str	r3, [r7, #20]
  const uint8_t *max_heap = (uint8_t *)stack_limit;
 8000690:	697b      	ldr	r3, [r7, #20]
 8000692:	613b      	str	r3, [r7, #16]
  uint8_t *prev_heap_end;

  /* Initialize heap end at first call */
  if (NULL == __sbrk_heap_end)
 8000694:	4b13      	ldr	r3, [pc, #76]	@ (80006e4 <_sbrk+0x64>)
 8000696:	681b      	ldr	r3, [r3, #0]
 8000698:	2b00      	cmp	r3, #0
 800069a:	d102      	bne.n	80006a2 <_sbrk+0x22>
  {
    __sbrk_heap_end = &_end;
 800069c:	4b11      	ldr	r3, [pc, #68]	@ (80006e4 <_sbrk+0x64>)
 800069e:	4a12      	ldr	r2, [pc, #72]	@ (80006e8 <_sbrk+0x68>)
 80006a0:	601a      	str	r2, [r3, #0]
  }

  /* Protect heap from growing into the reserved MSP stack */
  if (__sbrk_heap_end + incr > max_heap)
 80006a2:	4b10      	ldr	r3, [pc, #64]	@ (80006e4 <_sbrk+0x64>)
 80006a4:	681a      	ldr	r2, [r3, #0]
 80006a6:	687b      	ldr	r3, [r7, #4]
 80006a8:	4413      	add	r3, r2
 80006aa:	693a      	ldr	r2, [r7, #16]
 80006ac:	429a      	cmp	r2, r3
 80006ae:	d207      	bcs.n	80006c0 <_sbrk+0x40>
  {
    errno = ENOMEM;
 80006b0:	f000 f90c 	bl	80008cc <__errno>
 80006b4:	4603      	mov	r3, r0
 80006b6:	220c      	movs	r2, #12
 80006b8:	601a      	str	r2, [r3, #0]
    return (void *)-1;
 80006ba:	f04f 33ff 	mov.w	r3, #4294967295
 80006be:	e009      	b.n	80006d4 <_sbrk+0x54>
  }

  prev_heap_end = __sbrk_heap_end;
 80006c0:	4b08      	ldr	r3, [pc, #32]	@ (80006e4 <_sbrk+0x64>)
 80006c2:	681b      	ldr	r3, [r3, #0]
 80006c4:	60fb      	str	r3, [r7, #12]
  __sbrk_heap_end += incr;
 80006c6:	4b07      	ldr	r3, [pc, #28]	@ (80006e4 <_sbrk+0x64>)
 80006c8:	681a      	ldr	r2, [r3, #0]
 80006ca:	687b      	ldr	r3, [r7, #4]
 80006cc:	4413      	add	r3, r2
 80006ce:	4a05      	ldr	r2, [pc, #20]	@ (80006e4 <_sbrk+0x64>)
 80006d0:	6013      	str	r3, [r2, #0]

  return (void *)prev_heap_end;
 80006d2:	68fb      	ldr	r3, [r7, #12]
}
 80006d4:	4618      	mov	r0, r3
 80006d6:	3718      	adds	r7, #24
 80006d8:	46bd      	mov	sp, r7
 80006da:	bd80      	pop	{r7, pc}
 80006dc:	2000a000 	.word	0x2000a000
 80006e0:	00000400 	.word	0x00000400
 80006e4:	200000b4 	.word	0x200000b4
 80006e8:	20000200 	.word	0x20000200

080006ec <Reset_Handler>:

  .section .text.Reset_Handler
  .weak Reset_Handler
  .type Reset_Handler, %function
Reset_Handler:
  ldr   r0, =_estack
 80006ec:	480d      	ldr	r0, [pc, #52]	@ (8000724 <LoopForever+0x2>)
  mov   sp, r0          /* set stack pointer */
 80006ee:	4685      	mov	sp, r0
/* Call the clock system initialization function.*/
  bl  SystemInit
 80006f0:	f3af 8000 	nop.w

/* Copy the data segment initializers from flash to SRAM */
  ldr r0, =_sdata
 80006f4:	480c      	ldr	r0, [pc, #48]	@ (8000728 <LoopForever+0x6>)
  ldr r1, =_edata
 80006f6:	490d      	ldr	r1, [pc, #52]	@ (800072c <LoopForever+0xa>)
  ldr r2, =_sidata
 80006f8:	4a0d      	ldr	r2, [pc, #52]	@ (8000730 <LoopForever+0xe>)
  movs r3, #0
 80006fa:	2300      	movs	r3, #0
  b LoopCopyDataInit
 80006fc:	e002      	b.n	8000704 <LoopCopyDataInit>

080006fe <CopyDataInit>:

CopyDataInit:
  ldr r4, [r2, r3]
 80006fe:	58d4      	ldr	r4, [r2, r3]
  str r4, [r0, r3]
 8000700:	50c4      	str	r4, [r0, r3]
  adds r3, r3, #4
 8000702:	3304      	adds	r3, #4

08000704 <LoopCopyDataInit>:

LoopCopyDataInit:
  adds r4, r0, r3
 8000704:	18c4      	adds	r4, r0, r3
  cmp r4, r1
 8000706:	428c      	cmp	r4, r1
  bcc CopyDataInit
 8000708:	d3f9      	bcc.n	80006fe <CopyDataInit>

/* Zero fill the bss segment. */
  ldr r2, =_sbss
 800070a:	4a0a      	ldr	r2, [pc, #40]	@ (8000734 <LoopForever+0x12>)
  ldr r4, =_ebss
 800070c:	4c0a      	ldr	r4, [pc, #40]	@ (8000738 <LoopForever+0x16>)
  movs r3, #0
 800070e:	2300      	movs	r3, #0
  b LoopFillZerobss
 8000710:	e001      	b.n	8000716 <LoopFillZerobss>

08000712 <FillZerobss>:

FillZerobss:
  str  r3, [r2]
 8000712:	6013      	str	r3, [r2, #0]
  adds r2, r2, #4
 8000714:	3204      	adds	r2, #4

08000716 <LoopFillZerobss>:

LoopFillZerobss:
  cmp r2, r4
 8000716:	42a2      	cmp	r2, r4
  bcc FillZerobss
 8000718:	d3fb      	bcc.n	8000712 <FillZerobss>

/* Call static constructors */
  bl __libc_init_array
 800071a:	f000 f8dd 	bl	80008d8 <__libc_init_array>
/* Call the application's entry point.*/
  bl main
 800071e:	f7ff fea5 	bl	800046c <main>

08000722 <LoopForever>:

LoopForever:
  b LoopForever
 8000722:	e7fe      	b.n	8000722 <LoopForever>
  ldr   r0, =_estack
 8000724:	2000a000 	.word	0x2000a000
  ldr r0, =_sdata
 8000728:	20000000 	.word	0x20000000
  ldr r1, =_edata
 800072c:	20000090 	.word	0x20000090
  ldr r2, =_sidata
 8000730:	08000944 	.word	0x08000944
  ldr r2, =_sbss
 8000734:	20000090 	.word	0x20000090
  ldr r4, =_ebss
 8000738:	20000200 	.word	0x20000200

0800073c <ADC1_2_IRQHandler>:
 * @retval : None
*/
  .section .text.Default_Handler,"ax",%progbits
Default_Handler:
Infinite_Loop:
  b Infinite_Loop
 800073c:	e7fe      	b.n	800073c <ADC1_2_IRQHandler>
	...

08000740 <malloc>:
 8000740:	4b02      	ldr	r3, [pc, #8]	@ (800074c <malloc+0xc>)
 8000742:	4601      	mov	r1, r0
 8000744:	6818      	ldr	r0, [r3, #0]
 8000746:	f000 b825 	b.w	8000794 <_malloc_r>
 800074a:	bf00      	nop
 800074c:	20000040 	.word	0x20000040

08000750 <sbrk_aligned>:
 8000750:	b570      	push	{r4, r5, r6, lr}
 8000752:	4e0f      	ldr	r6, [pc, #60]	@ (8000790 <sbrk_aligned+0x40>)
 8000754:	460c      	mov	r4, r1
 8000756:	6831      	ldr	r1, [r6, #0]
 8000758:	4605      	mov	r5, r0
 800075a:	b911      	cbnz	r1, 8000762 <sbrk_aligned+0x12>
 800075c:	f000 f8a6 	bl	80008ac <_sbrk_r>
 8000760:	6030      	str	r0, [r6, #0]
 8000762:	4621      	mov	r1, r4
 8000764:	4628      	mov	r0, r5
 8000766:	f000 f8a1 	bl	80008ac <_sbrk_r>
 800076a:	1c43      	adds	r3, r0, #1
 800076c:	d103      	bne.n	8000776 <sbrk_aligned+0x26>
 800076e:	f04f 34ff 	mov.w	r4, #4294967295
 8000772:	4620      	mov	r0, r4
 8000774:	bd70      	pop	{r4, r5, r6, pc}
 8000776:	1cc4      	adds	r4, r0, #3
 8000778:	f024 0403 	bic.w	r4, r4, #3
 800077c:	42a0      	cmp	r0, r4
 800077e:	d0f8      	beq.n	8000772 <sbrk_aligned+0x22>
 8000780:	1a21      	subs	r1, r4, r0
 8000782:	4628      	mov	r0, r5
 8000784:	f000 f892 	bl	80008ac <_sbrk_r>
 8000788:	3001      	adds	r0, #1
 800078a:	d1f2      	bne.n	8000772 <sbrk_aligned+0x22>
 800078c:	e7ef      	b.n	800076e <sbrk_aligned+0x1e>
 800078e:	bf00      	nop
 8000790:	200000b8 	.word	0x200000b8

08000794 <_malloc_r>:
 8000794:	e92d 43f8 	stmdb	sp!, {r3, r4, r5, r6, r7, r8, r9, lr}
 8000798:	1ccd      	adds	r5, r1, #3
 800079a:	f025 0503 	bic.w	r5, r5, #3
 800079e:	3508      	adds	r5, #8
 80007a0:	2d0c      	cmp	r5, #12
 80007a2:	bf38      	it	cc
 80007a4:	250c      	movcc	r5, #12
 80007a6:	2d00      	cmp	r5, #0
 80007a8:	4606      	mov	r6, r0
 80007aa:	db01      	blt.n	80007b0 <_malloc_r+0x1c>
 80007ac:	42a9      	cmp	r1, r5
 80007ae:	d904      	bls.n	80007ba <_malloc_r+0x26>
 80007b0:	230c      	movs	r3, #12
 80007b2:	6033      	str	r3, [r6, #0]
 80007b4:	2000      	movs	r0, #0
 80007b6:	e8bd 83f8 	ldmia.w	sp!, {r3, r4, r5, r6, r7, r8, r9, pc}
 80007ba:	f8df 80d4 	ldr.w	r8, [pc, #212]	@ 8000890 <_malloc_r+0xfc>
 80007be:	f000 f869 	bl	8000894 <__malloc_lock>
 80007c2:	f8d8 3000 	ldr.w	r3, [r8]
 80007c6:	461c      	mov	r4, r3
 80007c8:	bb44      	cbnz	r4, 800081c <_malloc_r+0x88>
 80007ca:	4629      	mov	r1, r5
 80007cc:	4630      	mov	r0, r6
 80007ce:	f7ff ffbf 	bl	8000750 <sbrk_aligned>
 80007d2:	1c43      	adds	r3, r0, #1
 80007d4:	4604      	mov	r4, r0
 80007d6:	d158      	bne.n	800088a <_malloc_r+0xf6>
 80007d8:	f8d8 4000 	ldr.w	r4, [r8]
 80007dc:	4627      	mov	r7, r4
 80007de:	2f00      	cmp	r7, #0
 80007e0:	d143      	bne.n	800086a <_malloc_r+0xd6>
 80007e2:	2c00      	cmp	r4, #0
 80007e4:	d04b      	beq.n	800087e <_malloc_r+0xea>
 80007e6:	6823      	ldr	r3, [r4, #0]
 80007e8:	4639      	mov	r1, r7
 80007ea:	4630      	mov	r0, r6
 80007ec:	eb04 0903 	add.w	r9, r4, r3
 80007f0:	f000 f85c 	bl	80008ac <_sbrk_r>
 80007f4:	4581      	cmp	r9, r0
 80007f6:	d142      	bne.n	800087e <_malloc_r+0xea>
 80007f8:	6821      	ldr	r1, [r4, #0]
 80007fa:	1a6d      	subs	r5, r5, r1
 80007fc:	4629      	mov	r1, r5
 80007fe:	4630      	mov	r0, r6
 8000800:	f7ff ffa6 	bl	8000750 <sbrk_aligned>
 8000804:	3001      	adds	r0, #1
 8000806:	d03a      	beq.n	800087e <_malloc_r+0xea>
 8000808:	6823      	ldr	r3, [r4, #0]
 800080a:	442b      	add	r3, r5
 800080c:	6023      	str	r3, [r4, #0]
 800080e:	f8d8 3000 	ldr.w	r3, [r8]
 8000812:	685a      	ldr	r2, [r3, #4]
 8000814:	bb62      	cbnz	r2, 8000870 <_malloc_r+0xdc>
 8000816:	f8c8 7000 	str.w	r7, [r8]
 800081a:	e00f      	b.n	800083c <_malloc_r+0xa8>
 800081c:	6822      	ldr	r2, [r4, #0]
 800081e:	1b52      	subs	r2, r2, r5
 8000820:	d420      	bmi.n	8000864 <_malloc_r+0xd0>
 8000822:	2a0b      	cmp	r2, #11
 8000824:	d917      	bls.n	8000856 <_malloc_r+0xc2>
 8000826:	1961      	adds	r1, r4, r5
 8000828:	42a3      	cmp	r3, r4
 800082a:	6025      	str	r5, [r4, #0]
 800082c:	bf18      	it	ne
 800082e:	6059      	strne	r1, [r3, #4]
 8000830:	6863      	ldr	r3, [r4, #4]
 8000832:	bf08      	it	eq
 8000834:	f8c8 1000 	streq.w	r1, [r8]
 8000838:	5162      	str	r2, [r4, r5]
 800083a:	604b      	str	r3, [r1, #4]
 800083c:	4630      	mov	r0, r6
 800083e:	f000 f82f 	bl	80008a0 <__malloc_unlock>
 8000842:	f104 000b 	add.w	r0, r4, #11
 8000846:	1d23      	adds	r3, r4, #4
 8000848:	f020 0007 	bic.w	r0, r0, #7
 800084c:	1ac2      	subs	r2, r0, r3
 800084e:	bf1c      	itt	ne
 8000850:	1a1b      	subne	r3, r3, r0
 8000852:	50a3      	strne	r3, [r4, r2]
 8000854:	e7af      	b.n	80007b6 <_malloc_r+0x22>
 8000856:	6862      	ldr	r2, [r4, #4]
 8000858:	42a3      	cmp	r3, r4
 800085a:	bf0c      	ite	eq
 800085c:	f8c8 2000 	streq.w	r2, [r8]
 8000860:	605a      	strne	r2, [r3, #4]
 8000862:	e7eb      	b.n	800083c <_malloc_r+0xa8>
 8000864:	4623      	mov	r3, r4
 8000866:	6864      	ldr	r4, [r4, #4]
 8000868:	e7ae      	b.n	80007c8 <_malloc_r+0x34>
 800086a:	463c      	mov	r4, r7
 800086c:	687f      	ldr	r7, [r7, #4]
 800086e:	e7b6      	b.n	80007de <_malloc_r+0x4a>
 8000870:	461a      	mov	r2, r3
 8000872:	685b      	ldr	r3, [r3, #4]
 8000874:	42a3      	cmp	r3, r4
 8000876:	d1fb      	bne.n	8000870 <_malloc_r+0xdc>
 8000878:	2300      	movs	r3, #0
 800087a:	6053      	str	r3, [r2, #4]
 800087c:	e7de      	b.n	800083c <_malloc_r+0xa8>
 800087e:	230c      	movs	r3, #12
 8000880:	6033      	str	r3, [r6, #0]
 8000882:	4630      	mov	r0, r6
 8000884:	f000 f80c 	bl	80008a0 <__malloc_unlock>
 8000888:	e794      	b.n	80007b4 <_malloc_r+0x20>
 800088a:	6005      	str	r5, [r0, #0]
 800088c:	e7d6      	b.n	800083c <_malloc_r+0xa8>
 800088e:	bf00      	nop
 8000890:	200000bc 	.word	0x200000bc

08000894 <__malloc_lock>:
 8000894:	4801      	ldr	r0, [pc, #4]	@ (800089c <__malloc_lock+0x8>)
 8000896:	f000 b843 	b.w	8000920 <__retarget_lock_acquire_recursive>
 800089a:	bf00      	nop
 800089c:	200001fc 	.word	0x200001fc

080008a0 <__malloc_unlock>:
 80008a0:	4801      	ldr	r0, [pc, #4]	@ (80008a8 <__malloc_unlock+0x8>)
 80008a2:	f000 b83e 	b.w	8000922 <__retarget_lock_release_recursive>
 80008a6:	bf00      	nop
 80008a8:	200001fc 	.word	0x200001fc

080008ac <_sbrk_r>:
 80008ac:	b538      	push	{r3, r4, r5, lr}
 80008ae:	4d06      	ldr	r5, [pc, #24]	@ (80008c8 <_sbrk_r+0x1c>)
 80008b0:	2300      	movs	r3, #0
 80008b2:	4604      	mov	r4, r0
 80008b4:	4608      	mov	r0, r1
 80008b6:	602b      	str	r3, [r5, #0]
 80008b8:	f7ff fee2 	bl	8000680 <_sbrk>
 80008bc:	1c43      	adds	r3, r0, #1
 80008be:	d102      	bne.n	80008c6 <_sbrk_r+0x1a>
 80008c0:	682b      	ldr	r3, [r5, #0]
 80008c2:	b103      	cbz	r3, 80008c6 <_sbrk_r+0x1a>
 80008c4:	6023      	str	r3, [r4, #0]
 80008c6:	bd38      	pop	{r3, r4, r5, pc}
 80008c8:	200001f8 	.word	0x200001f8

080008cc <__errno>:
 80008cc:	4b01      	ldr	r3, [pc, #4]	@ (80008d4 <__errno+0x8>)
 80008ce:	6818      	ldr	r0, [r3, #0]
 80008d0:	4770      	bx	lr
 80008d2:	bf00      	nop
 80008d4:	20000040 	.word	0x20000040

080008d8 <__libc_init_array>:
 80008d8:	b570      	push	{r4, r5, r6, lr}
 80008da:	4d0d      	ldr	r5, [pc, #52]	@ (8000910 <__libc_init_array+0x38>)
 80008dc:	4c0d      	ldr	r4, [pc, #52]	@ (8000914 <__libc_init_array+0x3c>)
 80008de:	1b64      	subs	r4, r4, r5
 80008e0:	10a4      	asrs	r4, r4, #2
 80008e2:	2600      	movs	r6, #0
 80008e4:	42a6      	cmp	r6, r4
 80008e6:	d109      	bne.n	80008fc <__libc_init_array+0x24>
 80008e8:	4d0b      	ldr	r5, [pc, #44]	@ (8000918 <__libc_init_array+0x40>)
 80008ea:	4c0c      	ldr	r4, [pc, #48]	@ (800091c <__libc_init_array+0x44>)
 80008ec:	f000 f81a 	bl	8000924 <_init>
 80008f0:	1b64      	subs	r4, r4, r5
 80008f2:	10a4      	asrs	r4, r4, #2
 80008f4:	2600      	movs	r6, #0
 80008f6:	42a6      	cmp	r6, r4
 80008f8:	d105      	bne.n	8000906 <__libc_init_array+0x2e>
 80008fa:	bd70      	pop	{r4, r5, r6, pc}
 80008fc:	f855 3b04 	ldr.w	r3, [r5], #4
 8000900:	4798      	blx	r3
 8000902:	3601      	adds	r6, #1
 8000904:	e7ee      	b.n	80008e4 <__libc_init_array+0xc>
 8000906:	f855 3b04 	ldr.w	r3, [r5], #4
 800090a:	4798      	blx	r3
 800090c:	3601      	adds	r6, #1
 800090e:	e7f2      	b.n	80008f6 <__libc_init_array+0x1e>
 8000910:	0800093c 	.word	0x0800093c
 8000914:	0800093c 	.word	0x0800093c
 8000918:	0800093c 	.word	0x0800093c
 800091c:	08000940 	.word	0x08000940

08000920 <__retarget_lock_acquire_recursive>:
 8000920:	4770      	bx	lr

08000922 <__retarget_lock_release_recursive>:
 8000922:	4770      	bx	lr

08000924 <_init>:
 8000924:	b5f8      	push	{r3, r4, r5, r6, r7, lr}
 8000926:	bf00      	nop
 8000928:	bcf8      	pop	{r3, r4, r5, r6, r7}
 800092a:	bc08      	pop	{r3}
 800092c:	469e      	mov	lr, r3
 800092e:	4770      	bx	lr

08000930 <_fini>:
 8000930:	b5f8      	push	{r3, r4, r5, r6, r7, lr}
 8000932:	bf00      	nop
 8000934:	bcf8      	pop	{r3, r4, r5, r6, r7}
 8000936:	bc08      	pop	{r3}
 8000938:	469e      	mov	lr, r3
 800093a:	4770      	bx	lr
